; Function Attrs: mustprogress uwtable
define void @_ZN15SequenceDiagram17setSelectedPacketEi(ptr nocapture noundef nonnull align 8 dereferenceable(240) %0, i32 noundef %1) local_unnamed_addr #1 align 2 {
  %3 = getelementptr inbounds i8, ptr %0, i64 232
  store double -1.000000e+00, ptr %3, align 8
  %spec.select = tail call i32 @llvm.smax.i32(i32 %1, i32 0)
  %4 = getelementptr inbounds i8, ptr %0, i64 224
  store i32 %spec.select, ptr %4, align 8
  %5 = getelementptr inbounds i8, ptr %0, i64 24
  %6 = load ptr, ptr %5, align 8
  tail call void @_ZN11QCustomPlot6replotENS_15RefreshPriorityE(ptr noundef nonnull align 8 dereferenceable(513) %6, i32 noundef 2)
  ret void
}